target datalayout = "e-m:e-p270:32:32-p271:32:32-p272:64:64-i64:64-i128:128-f80:128-n8:16:32:64-S128"
target triple = "x86_64-pc-linux-gnu"

%"struct.(anonymous namespace)::StaticDiagInfoRec" = type <{ i16, i32, i8, i8, i16 }>

; Function Attrs: mustprogress nounwind uwtable
define dso_local noundef i32 @_ZN5clang13DiagnosticIDs27getDiagnosticSFINAEResponseEj(i32 noundef %0) #0 align 2 {
  %2 = alloca i32, align 4
  %3 = alloca i32, align 4
  %4 = alloca ptr, align 8
  store i32 %0, ptr %3, align 4
  %5 = load i32, ptr %3, align 4
  %6 = call noundef ptr @_ZL11GetDiagInfoj(i32 noundef %5)
  store ptr %6, ptr %4, align 8
  %7 = load ptr, ptr %4, align 8
  %8 = icmp ne ptr %7, null
  br i1 %8, label %9, label %17

9:                                                ; preds = %1
  %10 = load ptr, ptr %4, align 8
  %11 = getelementptr inbounds nuw %"struct.(anonymous namespace)::StaticDiagInfoRec", ptr %10, i32 0, i32 1
  %12 = load i32, ptr %11, align 2
  %13 = lshr i32 %12, 6
  %14 = and i32 %13, 3
  %15 = trunc i32 %14 to i8
  %16 = zext i8 %15 to i32
  store i32 %16, ptr %2, align 4
  br label %18

17:                                               ; preds = %1
  store i32 2, ptr %2, align 4
  br label %18

18:                                               ; preds = %17, %9
  %19 = load i32, ptr %2, align 4
  ret i32 %19
}