; Function Attrs: mustprogress nofree norecurse nosync nounwind willreturn memory(read, inaccessiblemem: none) uwtable
define dso_local noundef range(i32 0, 4) i32 @_ZN5clang13DiagnosticIDs27getDiagnosticSFINAEResponseEj(i32 noundef %0) local_unnamed_addr #0 align 2 {
  %2 = tail call fastcc noundef ptr @_ZL11GetDiagInfoj(i32 noundef %0)
  %.not = icmp eq ptr %2, null
  br i1 %.not, label %8, label %3

3:                                                ; preds = %1
  %4 = getelementptr inbounds nuw i8, ptr %2, i64 2
  %5 = load i32, ptr %4, align 2
  %6 = lshr i32 %5, 6
  %7 = and i32 %6, 3
  br label %8

8:                                                ; preds = %1, %3
  %.0 = phi i32 [ %7, %3 ], [ 2, %1 ]
  ret i32 %.0
}